; ModuleID = '24/2153.c'
source_filename = "24/2153.c"
target datalayout = "e-m:e-p270:32:32-p271:32:32-p272:64:64-i64:64-f80:128-n8:16:32:64-S128"
target triple = "x86_64-pc-linux-gnu"

@.str = private unnamed_addr constant [3 x i8] c"%s\00", align 1
@.str.1 = private unnamed_addr constant [4 x i8] c"%s\0A\00", align 1

; Function Attrs: noinline nounwind uwtable
define dso_local i32 @main() #0 {
  %1 = alloca i32, align 4
  %2 = alloca [200 x [50 x i8]], align 16
  %3 = alloca i32, align 4
  %4 = alloca i32, align 4
  %5 = alloca i32, align 4
  %6 = alloca i32, align 4
  %7 = alloca i32, align 4
  %8 = alloca [200 x i32], align 16
  %9 = alloca [200 x i32], align 16
  %10 = alloca i8, align 1
  %11 = alloca i32, align 4
  %12 = alloca i32, align 4
  %13 = alloca i32, align 4
  %14 = alloca i32, align 4
  store i32 0, i32* %1, align 4
  store i32 0, i32* %6, align 4
  %15 = bitcast [200 x i32]* %8 to i8*
  call void @llvm.memset.p0i8.i64(i8* align 16 %15, i8 0, i64 800, i1 false)
  %16 = bitcast [200 x i32]* %9 to i8*
  call void @llvm.memset.p0i8.i64(i8* align 16 %16, i8 0, i64 800, i1 false)
  store i32 0, i32* %4, align 4
  br label %17

17:                                               ; preds = %35, %0
  %18 = load i32, i32* %4, align 4
  %19 = icmp sle i32 %18, 199
  br i1 %19, label %20, label %38

20:                                               ; preds = %17
  %21 = load i32, i32* %6, align 4
  %22 = sext i32 %21 to i64
  %23 = getelementptr inbounds [200 x [50 x i8]], [200 x [50 x i8]]* %2, i64 0, i64 %22
  %24 = getelementptr inbounds [50 x i8], [50 x i8]* %23, i64 0, i64 0
  %25 = call i32 (i8*, ...) @__isoc99_scanf(i8* getelementptr inbounds ([3 x i8], [3 x i8]* @.str, i64 0, i64 0), i8* %24)
  %26 = call i32 @getchar()
  %27 = trunc i32 %26 to i8
  store i8 %27, i8* %10, align 1
  %28 = load i8, i8* %10, align 1
  %29 = sext i8 %28 to i32
  %30 = icmp eq i32 %29, 10
  br i1 %30, label %31, label %32

31:                                               ; preds = %20
  br label %38

32:                                               ; preds = %20
  %33 = load i32, i32* %6, align 4
  %34 = add nsw i32 %33, 1
  store i32 %34, i32* %6, align 4
  br label %35

35:                                               ; preds = %32
  %36 = load i32, i32* %4, align 4
  %37 = add nsw i32 %36, 1
  store i32 %37, i32* %4, align 4
  br label %17

38:                                               ; preds = %31, %17
  store i32 0, i32* %5, align 4
  br label %39

39:                                               ; preds = %61, %38
  %40 = load i32, i32* %5, align 4
  %41 = load i32, i32* %6, align 4
  %42 = add nsw i32 %41, 1
  %43 = icmp slt i32 %40, %42
  br i1 %43, label %44, label %64

44:                                               ; preds = %39
  %45 = load i32, i32* %5, align 4
  %46 = sext i32 %45 to i64
  %47 = getelementptr inbounds [200 x [50 x i8]], [200 x [50 x i8]]* %2, i64 0, i64 %46
  %48 = getelementptr inbounds [50 x i8], [50 x i8]* %47, i64 0, i64 0
  %49 = call i64 @strlen(i8* %48) #4
  %50 = trunc i64 %49 to i32
  %51 = load i32, i32* %5, align 4
  %52 = sext i32 %51 to i64
  %53 = getelementptr inbounds [200 x i32], [200 x i32]* %8, i64 0, i64 %52
  store i32 %50, i32* %53, align 4
  %54 = load i32, i32* %5, align 4
  %55 = sext i32 %54 to i64
  %56 = getelementptr inbounds [200 x i32], [200 x i32]* %8, i64 0, i64 %55
  %57 = load i32, i32* %56, align 4
  %58 = load i32, i32* %5, align 4
  %59 = sext i32 %58 to i64
  %60 = getelementptr inbounds [200 x i32], [200 x i32]* %9, i64 0, i64 %59
  store i32 %57, i32* %60, align 4
  br label %61

61:                                               ; preds = %44
  %62 = load i32, i32* %5, align 4
  %63 = add nsw i32 %62, 1
  store i32 %63, i32* %5, align 4
  br label %39

64:                                               ; preds = %39
  store i32 0, i32* %11, align 4
  br label %65

65:                                               ; preds = %107, %64
  %66 = load i32, i32* %11, align 4
  %67 = load i32, i32* %6, align 4
  %68 = sub nsw i32 %67, 1
  %69 = icmp sle i32 %66, %68
  br i1 %69, label %70, label %110

70:                                               ; preds = %65
  %71 = load i32, i32* %11, align 4
  store i32 %71, i32* %12, align 4
  br label %72

72:                                               ; preds = %103, %70
  %73 = load i32, i32* %12, align 4
  %74 = load i32, i32* %6, align 4
  %75 = icmp sle i32 %73, %74
  br i1 %75, label %76, label %106

76:                                               ; preds = %72
  %77 = load i32, i32* %11, align 4
  %78 = sext i32 %77 to i64
  %79 = getelementptr inbounds [200 x i32], [200 x i32]* %8, i64 0, i64 %78
  %80 = load i32, i32* %79, align 4
  %81 = load i32, i32* %12, align 4
  %82 = sext i32 %81 to i64
  %83 = getelementptr inbounds [200 x i32], [200 x i32]* %8, i64 0, i64 %82
  %84 = load i32, i32* %83, align 4
  %85 = icmp slt i32 %80, %84
  br i1 %85, label %86, label %102

86:                                               ; preds = %76
  %87 = load i32, i32* %11, align 4
  %88 = sext i32 %87 to i64
  %89 = getelementptr inbounds [200 x i32], [200 x i32]* %8, i64 0, i64 %88
  %90 = load i32, i32* %89, align 4
  store i32 %90, i32* %7, align 4
  %91 = load i32, i32* %12, align 4
  %92 = sext i32 %91 to i64
  %93 = getelementptr inbounds [200 x i32], [200 x i32]* %8, i64 0, i64 %92
  %94 = load i32, i32* %93, align 4
  %95 = load i32, i32* %11, align 4
  %96 = sext i32 %95 to i64
  %97 = getelementptr inbounds [200 x i32], [200 x i32]* %8, i64 0, i64 %96
  store i32 %94, i32* %97, align 4
  %98 = load i32, i32* %7, align 4
  %99 = load i32, i32* %12, align 4
  %100 = sext i32 %99 to i64
  %101 = getelementptr inbounds [200 x i32], [200 x i32]* %8, i64 0, i64 %100
  store i32 %98, i32* %101, align 4
  br label %102

102:                                              ; preds = %86, %76
  br label %103

103:                                              ; preds = %102
  %104 = load i32, i32* %12, align 4
  %105 = add nsw i32 %104, 1
  store i32 %105, i32* %12, align 4
  br label %72

106:                                              ; preds = %72
  br label %107

107:                                              ; preds = %106
  %108 = load i32, i32* %11, align 4
  %109 = add nsw i32 %108, 1
  store i32 %109, i32* %11, align 4
  br label %65

110:                                              ; preds = %65
  store i32 0, i32* %13, align 4
  br label %111

111:                                              ; preds = %130, %110
  %112 = load i32, i32* %13, align 4
  %113 = load i32, i32* %6, align 4
  %114 = icmp sle i32 %112, %113
  br i1 %114, label %115, label %133

115:                                              ; preds = %111
  %116 = load i32, i32* %13, align 4
  %117 = sext i32 %116 to i64
  %118 = getelementptr inbounds [200 x i32], [200 x i32]* %9, i64 0, i64 %117
  %119 = load i32, i32* %118, align 4
  %120 = getelementptr inbounds [200 x i32], [200 x i32]* %8, i64 0, i64 0
  %121 = load i32, i32* %120, align 16
  %122 = icmp eq i32 %119, %121
  br i1 %122, label %123, label %129

123:                                              ; preds = %115
  %124 = load i32, i32* %13, align 4
  %125 = sext i32 %124 to i64
  %126 = getelementptr inbounds [200 x [50 x i8]], [200 x [50 x i8]]* %2, i64 0, i64 %125
  %127 = getelementptr inbounds [50 x i8], [50 x i8]* %126, i64 0, i64 0
  %128 = call i32 (i8*, ...) @printf(i8* getelementptr inbounds ([4 x i8], [4 x i8]* @.str.1, i64 0, i64 0), i8* %127)
  br label %133

129:                                              ; preds = %115
  br label %130

130:                                              ; preds = %129
  %131 = load i32, i32* %13, align 4
  %132 = add nsw i32 %131, 1
  store i32 %132, i32* %13, align 4
  br label %111

133:                                              ; preds = %123, %111
  store i32 0, i32* %14, align 4
  br label %134

134:                                              ; preds = %155, %133
  %135 = load i32, i32* %14, align 4
  %136 = load i32, i32* %6, align 4
  %137 = icmp sle i32 %135, %136
  br i1 %137, label %138, label %158

138:                                              ; preds = %134
  %139 = load i32, i32* %14, align 4
  %140 = sext i32 %139 to i64
  %141 = getelementptr inbounds [200 x i32], [200 x i32]* %9, i64 0, i64 %140
  %142 = load i32, i32* %141, align 4
  %143 = load i32, i32* %6, align 4
  %144 = sext i32 %143 to i64
  %145 = getelementptr inbounds [200 x i32], [200 x i32]* %8, i64 0, i64 %144
  %146 = load i32, i32* %145, align 4
  %147 = icmp eq i32 %142, %146
  br i1 %147, label %148, label %154

148:                                              ; preds = %138
  %149 = load i32, i32* %14, align 4
  %150 = sext i32 %149 to i64
  %151 = getelementptr inbounds [200 x [50 x i8]], [200 x [50 x i8]]* %2, i64 0, i64 %150
  %152 = getelementptr inbounds [50 x i8], [50 x i8]* %151, i64 0, i64 0
  %153 = call i32 (i8*, ...) @printf(i8* getelementptr inbounds ([3 x i8], [3 x i8]* @.str, i64 0, i64 0), i8* %152)
  br label %158

154:                                              ; preds = %138
  br label %155

155:                                              ; preds = %154
  %156 = load i32, i32* %14, align 4
  %157 = add nsw i32 %156, 1
  store i32 %157, i32* %14, align 4
  br label %134

158:                                              ; preds = %148, %134
  ret i32 0
}

; Function Attrs: argmemonly nounwind willreturn
declare void @llvm.memset.p0i8.i64(i8* nocapture writeonly, i8, i64, i1 immarg) #1

declare dso_local i32 @__isoc99_scanf(i8*, ...) #2

declare dso_local i32 @getchar() #2

; Function Attrs: nounwind readonly
declare dso_local i64 @strlen(i8*) #3

declare dso_local i32 @printf(i8*, ...) #2


!llvm.module.flags = !{!0}
!llvm.ident = !{!1}

!0 = !{i32 1, !"wchar_size", i32 4}
!1 = !{!"clang version 10.0.0-4ubuntu1 "}
